 profilerinterface

 Timestamp is 57c6ec23 (Wed Aug 31 16:39:31 2016)

 Preferred load address is 0000000010000000

 Start         Length     Name                   Class
 0001:00000000 000050a3H .text                   CODE
 0002:00000000 000000a0H .idata$5                DATA
 0002:000000a0 00000008H .CRT$XCA                DATA
 0002:000000a8 00000008H .CRT$XCZ                DATA
 0002:000000b0 00000008H .CRT$XIA                DATA
 0002:000000b8 00000008H .CRT$XIZ                DATA
 0002:000000c0 00000004H .rdata                  DATA
 0002:000000c4 000008d0H .xdata                  DATA
 0002:00000994 00000028H .idata$2                DATA
 0002:000009bc 00000014H .idata$3                DATA
 0002:000009d0 000000a0H .idata$4                DATA
 0002:00000a70 000000ecH .idata$6                DATA
 0002:00000b60 00000e26H .edata                  DATA
 0003:00000000 00001814H .data                   DATA
 0003:00001820 000002e8H .bss                    DATA
 0004:00000000 00000594H .pdata                  DATA
 0005:00000000 00000058H .rsrc$01                DATA
 0005:00000060 00000398H .rsrc$02                DATA

  Address         Publics by Value              Rva+Base             Lib:Object

 0000:00000000       ___safe_se_handler_table   0000000000000000     <absolute>
 0000:00000000       ___safe_se_handler_count   0000000000000000     <absolute>
 0001:00000000       Java_org_netbeans_lib_profiler_server_system_Classes_getAllLoadedClasses 0000000010001000 f   Classes.obj
 0001:000001f0       Java_org_netbeans_lib_profiler_server_system_Classes_cacheLoadedClasses 00000000100011f0 f   Classes.obj
 0001:000002b0       Java_org_netbeans_lib_profiler_server_system_Classes_getCachedClassFileBytes 00000000100012b0 f   Classes.obj
 0001:00000420       register_class_prepare     0000000010001420 f   Classes.obj
 0001:00000470       Java_org_netbeans_lib_profiler_server_system_Classes_enableClassLoadHook 0000000010001470 f   Classes.obj
 0001:00000570       Java_org_netbeans_lib_profiler_server_system_Classes_disableClassLoadHook 0000000010001570 f   Classes.obj
 0001:000005c0       Java_org_netbeans_lib_profiler_server_system_Classes_getObjectSize 00000000100015c0 f   Classes.obj
 0001:000005f0       Java_org_netbeans_lib_profiler_server_system_Classes_doRedefineClasses 00000000100015f0 f   Classes.obj
 0001:00000910       Java_org_netbeans_lib_profiler_server_system_Classes_notifyAboutClassLoaderUnloading 0000000010001910 f   Classes.obj
 0001:00000920       Java_org_netbeans_lib_profiler_server_system_HeapDump_initialize15 0000000010001920 f   HeapDump.obj
 0001:00000980       Java_org_netbeans_lib_profiler_server_system_HeapDump_takeHeapDump15Native 0000000010001980 f   HeapDump.obj
 0001:00000a10       Java_org_netbeans_lib_profiler_server_system_Timers_getThreadCPUTimeInNanos 0000000010001a10 f   Timers.obj
 0001:00000a80       Java_org_netbeans_lib_profiler_server_system_Timers_osSleep 0000000010001a80 f   Timers.obj
 0001:00000a90       Java_org_netbeans_lib_profiler_server_system_Timers_enableMicrostateAccounting 0000000010001a90 f   Timers.obj
 0001:00000aa0       register_gc_start          0000000010001aa0 f   GC.obj
 0001:00000b30       register_gc_finish         0000000010001b30 f   GC.obj
 0001:00000bc0       enable_gc_start_finish_hook 0000000010001bc0 f   GC.obj
 0001:00000cb0       Java_org_netbeans_lib_profiler_server_system_GC_activateGCEpochCounter 0000000010001cb0 f   GC.obj
 0001:00000e10       Java_org_netbeans_lib_profiler_server_system_GC_resetGCEpochCounter 0000000010001e10 f   GC.obj
 0001:00000e20       Java_org_netbeans_lib_profiler_server_system_GC_getCurrentGCEpoch 0000000010001e20 f   GC.obj
 0001:00000e30       Java_org_netbeans_lib_profiler_server_system_GC_objectsAdjacent 0000000010001e30 f   GC.obj
 0001:00000e60       Java_org_netbeans_lib_profiler_server_system_GC_getGCRelativeTimeMetrics 0000000010001e60 f   GC.obj
 0001:00000fb0       Java_org_netbeans_lib_profiler_server_system_GC_getGCStartFinishTimes 0000000010001fb0 f   GC.obj
 0001:00001020       Java_org_netbeans_lib_profiler_server_system_GC_runGC 0000000010002020 f   GC.obj
 0001:00001040       convert_JVMTI_thread_status_to_jfluid_status 0000000010002040 f   Threads.obj
 0001:000011b0       Java_org_netbeans_lib_profiler_server_system_Threads_recordProfilerOwnThreads 00000000100021b0 f   Threads.obj
 0001:000013f0       Java_org_netbeans_lib_profiler_server_system_Threads_recordAdditionalProfilerOwnThread 00000000100023f0 f   Threads.obj
 0001:00001450       Java_org_netbeans_lib_profiler_server_system_Threads_getTotalNumberOfThreads 0000000010002450 f   Threads.obj
 0001:000014c0       Java_org_netbeans_lib_profiler_server_system_Threads_suspendTargetAppThreads 00000000100024c0 f   Threads.obj
 0001:00001670       Java_org_netbeans_lib_profiler_server_system_Threads_resumeTargetAppThreads 0000000010002670 f   Threads.obj
 0001:00001820       Java_org_netbeans_lib_profiler_server_system_Threads_terminateTargetAppThreads 0000000010002820 f   Threads.obj
 0001:000019d0       Java_org_netbeans_lib_profiler_server_system_Threads_targetAppThreadsExist 00000000100029d0 f   Threads.obj
 0001:00001b70       Java_org_netbeans_lib_profiler_server_system_Threads_getAllThreads 0000000010002b70 f   Threads.obj
 0001:00001d00       Java_org_netbeans_lib_profiler_server_system_Threads_getThreadsStatus 0000000010002d00 f   Threads.obj
 0001:00001e10       Java_org_netbeans_lib_profiler_server_system_Threads_getJVMArguments 0000000010002e10 f   Threads.obj
 0001:00001e30       Java_org_netbeans_lib_profiler_server_system_Threads_getJavaCommand 0000000010002e30 f   Threads.obj
 0001:00001ef0       Java_org_netbeans_lib_profiler_server_system_Stacks_getCurrentJavaStackDepth 0000000010002ef0 f   Stacks.obj
 0001:00001f20       Java_org_netbeans_lib_profiler_server_system_Stacks_clearNativeStackFrameBuffer 0000000010002f20 f   Stacks.obj
 0001:00001f70       Java_org_netbeans_lib_profiler_server_system_Stacks_getCurrentStackFrameIds 0000000010002f70 f   Stacks.obj
 0001:000024d0       Java_org_netbeans_lib_profiler_server_system_Stacks_getMethodNamesForJMethodIds 00000000100034d0 f   Stacks.obj
 0001:00002930       Java_org_netbeans_lib_profiler_server_system_Stacks_getAllStackTraces 0000000010003930 f   Stacks.obj
 0001:00002cf0       Java_org_netbeans_lib_profiler_server_system_Stacks_createNativeStackFrameBuffer 0000000010003cf0 f   Stacks.obj
 0001:00002d50       get_nano_time              0000000010003d50 f   common_functions.obj
 0001:00002d80       report_usage               0000000010003d80 f   common_functions.obj
 0001:00003010       JNI_OnLoad                 0000000010004010 f   common_functions.obj
 0001:00003070       Agent_OnLoad               0000000010004070 f   common_functions.obj
 0001:000031f0       cache_loaded_classes       00000000100041f0 f   class_file_cache.obj
 0001:00003520       get_saved_class_file_bytes 0000000010004520 f   class_file_cache.obj
 0001:00003710       try_removing_bytes_for_unloaded_classes 0000000010004710 f   class_file_cache.obj
 0001:00003b60       waitInterceptor            0000000010004b60 f   class_file_cache.obj
 0001:00003c40       sleepInterceptor           0000000010004c40 f   class_file_cache.obj
 0001:00003d20       parkInterceptor            0000000010004d20 f   class_file_cache.obj
 0001:00003e10       monitor_contended_enter_hook 0000000010004e10 f   class_file_cache.obj
 0001:00003f20       monitor_contended_entered_hook 0000000010004f20 f   class_file_cache.obj
 0001:00003fb0       vm_object_alloc            0000000010004fb0 f   class_file_cache.obj
 0001:00004060       Java_org_netbeans_lib_profiler_server_system_Classes_setParkTrackingEnabled 0000000010005060 f   class_file_cache.obj
 0001:000040c0       Java_org_netbeans_lib_profiler_server_system_Classes_setLockContentionMonitoringEnabled 00000000100050c0 f   class_file_cache.obj
 0001:000040d0       Java_org_netbeans_lib_profiler_server_system_Classes_setWaitTrackingEnabled 00000000100050d0 f   class_file_cache.obj
 0001:00004140       Java_org_netbeans_lib_profiler_server_system_Classes_setSleepTrackingEnabled 0000000010005140 f   class_file_cache.obj
 0001:000041a0       Java_org_netbeans_lib_profiler_server_system_Classes_setVMObjectAllocEnabled 00000000100051a0 f   class_file_cache.obj
 0001:00004480       class_file_load_hook       0000000010005480 f   class_file_cache.obj
 0001:00004630       native_method_bind_hook    0000000010005630 f   class_file_cache.obj
 0001:000049e0       parse_options_and_extract_params 00000000100059e0 f   attach.obj
 0001:00004d80       vm_init_hook               0000000010005d80 f   attach.obj
 0001:00004d8e       malloc                     0000000010005d8e f   MSVCRT:msvcrt.dll
 0001:00004d94       memcpy                     0000000010005d94 f   MSVCRT:msvcrt.dll
 0001:00004d9a       memmove                    0000000010005d9a f   MSVCRT:msvcrt.dll
 0001:00004da0       memset                     0000000010005da0 f   MSVCRT:msvcrt.dll
 0001:00004db0       _CRT_INIT                  0000000010005db0 f   MSVCRT:crtdll.obj
 0001:00004e90       _DllMainCRTStartup         0000000010005e90 f   MSVCRT:crtdll.obj
 0001:00005000       _initterm                  0000000010006000 f   MSVCRT:msvcrt.dll
 0001:00005010       _malloc_crt                0000000010006010 f   MSVCRT:crtheap.obj
 0001:00005080       DllMain                    0000000010006080 f   MSVCRT:dllmain.obj
 0002:00000000       __imp_Sleep                0000000010007000     kernel32:KERNEL32.dll
 0002:00000008       __imp_GetModuleHandleA     0000000010007008     kernel32:KERNEL32.dll
 0002:00000010       __imp_GetProcAddress       0000000010007010     kernel32:KERNEL32.dll
 0002:00000018       __imp_DisableThreadLibraryCalls 0000000010007018     kernel32:KERNEL32.dll
 0002:00000020       \177KERNEL32_NULL_THUNK_DATA 0000000010007020     kernel32:KERNEL32.dll
 0002:00000028       __imp__iob                 0000000010007028     MSVCRT:msvcrt.dll
 0002:00000030       __imp_memcpy               0000000010007030     MSVCRT:msvcrt.dll
 0002:00000038       __imp_memmove              0000000010007038     MSVCRT:msvcrt.dll
 0002:00000040       __imp_strncpy              0000000010007040     MSVCRT:msvcrt.dll
 0002:00000048       __imp_memset               0000000010007048     MSVCRT:msvcrt.dll
 0002:00000050       __imp_strpbrk              0000000010007050     MSVCRT:msvcrt.dll
 0002:00000058       __imp_fprintf              0000000010007058     MSVCRT:msvcrt.dll
 0002:00000060       __imp_strtol               0000000010007060     MSVCRT:msvcrt.dll
 0002:00000068       __imp__initterm            0000000010007068     MSVCRT:msvcrt.dll
 0002:00000070       __imp_calloc               0000000010007070     MSVCRT:msvcrt.dll
 0002:00000078       __imp__assert              0000000010007078     MSVCRT:msvcrt.dll
 0002:00000080       __imp_malloc               0000000010007080     MSVCRT:msvcrt.dll
 0002:00000088       __imp_atoi                 0000000010007088     MSVCRT:msvcrt.dll
 0002:00000090       __imp_free                 0000000010007090     MSVCRT:msvcrt.dll
 0002:00000098       \177msvcrt_NULL_THUNK_DATA 0000000010007098     MSVCRT:msvcrt.dll
 0002:000000a0       __xc_a                     00000000100070a0     MSVCRT:cinitexe.obj
 0002:000000a8       __xc_z                     00000000100070a8     MSVCRT:cinitexe.obj
 0002:000000b0       __xi_a                     00000000100070b0     MSVCRT:cinitexe.obj
 0002:000000b8       __xi_z                     00000000100070b8     MSVCRT:cinitexe.obj
 0002:000000c0       __real@447a0000            00000000100070c0     GC.obj
 0002:00000994       __IMPORT_DESCRIPTOR_msvcrt 0000000010007994     MSVCRT:msvcrt.dll
 0002:000009a8       __IMPORT_DESCRIPTOR_KERNEL32 00000000100079a8     kernel32:KERNEL32.dll
 0002:000009bc       __NULL_IMPORT_DESCRIPTOR   00000000100079bc     MSVCRT:msvcrt.dll
 0003:00001810       _fltused                   000000001000a810     MSVCRT:dllsupp.obj
 0003:00001ad8       _jvmti                     000000001000aad8     <common>
 0003:00001ae0       _jvmti_callbacks           000000001000aae0     <common>
 0003:00001ae8       JVM_DumpHeap15             000000001000aae8     <common>
 0003:00001af0       __onexitend                000000001000aaf0     <common>
 0003:00001af8       __onexitbegin              000000001000aaf8     <common>
 0003:00001b00       _pRawDllMain               000000001000ab00     <common>

 entry point at        0001:00004e90

 Static symbols

 0001:000010c0       isProfilerThread           00000000100020c0 f   Threads.obj
 0001:00001e50       convert_jmethodID_to_jint  0000000010002e50 f   Stacks.obj
 0001:00001ed0       convert_jint_to_jmethodID  0000000010002ed0 f   Stacks.obj
 0001:000020d0       copy_into_data_array       00000000100030d0 f   Stacks.obj
 0001:000021d0       copy_dummy_names_into_data_array 00000000100031d0 f   Stacks.obj
 0001:00002de0       initializeJVMTI            0000000010003de0 f   common_functions.obj
 0001:00003200       isSameObject               0000000010004200 f   class_file_cache.obj
 0001:00003230       hash                       0000000010004230 f   class_file_cache.obj
 0001:000032a0       grow_ctable                00000000100042a0 f   class_file_cache.obj
 0001:00003720       getOwner                   0000000010004720 f   class_file_cache.obj
 0001:00003790       initializeMethods          0000000010004790 f   class_file_cache.obj
 0001:000041f0       save_class_file_bytes      00000000100051f0 f   class_file_cache.obj
 0001:00004bb0       setupAndCallProfilerRuntimeActivate 0000000010005bb0 f   attach.obj
